(dp1
S'src'
p2
(lp3
V,pt,at,us,
p4
aV,pt,at,us,gcmt,
p5
aV,us,pt,at,gcmt,
p6
aV,us,gcmt,
p7
aV,pt,at,us,gcmt,
p8
aV,at,nc,us,
p9
aV,us,gcmt,
p10
aV,us,gcmt,
p11
aV,us,gcmt,
p12
aV,at,us,gcmt,pt,
p13
aV,us,gcmt,
p14
aV,pt,at,us,gcmt,
p15
aV,us,gcmt,
p16
asS'altitude'
p17
(lp18
F7.9800000000000004
aF54.060000000000002
aI20
aF36.189999999999998
aF79.409999999999997
aF8.6999999999999993
aF146.50999999999999
aF12.94
aF578.24000000000001
aF42.090000000000003
aI12
aI40
aI15
asS'longitude'
p19
(lp20
F-110.1778
aF154.928
aF124.0115
aF23.2605
aF-62.277999999999999
aF-124.74979999999999
aF-178.43879999999999
aF78.379999999999995
aF152.7664
aF-178.37819999999999
aF65.504300000000001
aF-74.509399999999999
aF65.519800000000004
asS'magnitude'
p21
(lp22
F6.5
aF6.7999999999999998
aF7.0999999999999996
aF6.4000000000000004
aF6.0999999999999996
aF4.9000000000000004
aF6.2999999999999998
aF6.4000000000000004
aF6.7000000000000002
aF6.5
aF6.7999999999999998
aF7.0999999999999996
aF7.7000000000000002
asS'place'
p23
(lp24
V75km SW of Etchoropo, Mexico
p25
aV64km WSW of Panguna, Papua New Guinea
p26
aV2km NE of Catigbian, Philippines
p27
aV30km W of Platanos, Greece
p28
aV33km N of Gueiria, Venezuela
p29
aV52km WNW of Eureka, California
p30
aV87km NNE of L'Esperance Rock, New Zealand
p31
aV113km SE of Amsterdam Island, 
p32
aVSea of Okhotsk
p33
aV78km NE of L'Esperance Rock, New Zealand
p34
aV84km NNE of Awaran, Pakistan
p35
aV46km SSE of Acari, Peru
p36
aV63km NNE of Awaran, Pakistan
p37
asS'time'
p38
(lp39
L1382205296970L
aL1381919460930L
aL1381795952900L
aL1381583512440L
aL1381543829550L
aL1381532737300L
aL1381526698680L
aL1380907573740L
aL1380598701850L
aL1380520555680L
aL1380353646450L
aL1380127363140L
aL1380022187980L
asS'latitude'
p40
(lp41
F26.267600000000002
aF-6.4873000000000003
aF9.8661999999999992
aF35.486600000000003
aF10.876799999999999
aF40.983499999999999
aF-30.751899999999999
aF-38.601599999999998
aF53.173400000000001
aF-30.880099999999999
aF27.176100000000002
aF-15.838900000000001
aF26.970800000000001
as.